; Function Attrs: nounwind uwtable
define ptr @l_Array_foldlMUnsafe_fold___at_Lean_Meta_Grind_EMatchTheorems_eraseDecl___spec__2(ptr noundef readonly captures(none) %0, i64 noundef %1, i64 noundef %2, ptr noundef %3) local_unnamed_addr #1 {
  %.not28 = icmp eq i64 %1, %2
  br i1 %.not28, label %._crit_edge, label %.lr.ph

.lr.ph:                                           ; preds = %4
  %5 = getelementptr inbounds nuw i8, ptr %0, i64 24
  br label %6

6:                                                ; preds = %.lr.ph, %20
  %.01630 = phi i64 [ %1, %.lr.ph ], [ %24, %20 ]
  %.01829 = phi ptr [ %3, %.lr.ph ], [ %23, %20 ]
  %7 = getelementptr inbounds nuw [0 x ptr], ptr %5, i64 0, i64 %.01630
  %8 = load ptr, ptr %7, align 8, !tbaa !9
  %9 = ptrtoint ptr %8 to i64
  %10 = and i64 %9, 1
  %.not.i = icmp eq i64 %10, 0
  br i1 %.not.i, label %11, label %lean_array_uget.exit

11:                                               ; preds = %6
  %.val.i.i = load i32, ptr %8, align 4, !tbaa !4
  %12 = icmp sgt i32 %.val.i.i, 0
  br i1 %12, label %13, label %15, !prof !11

13:                                               ; preds = %11
  %14 = add nuw i32 %.val.i.i, 1
  store i32 %14, ptr %8, align 4, !tbaa !4
  br label %lean_array_uget.exit

15:                                               ; preds = %11
  %.not.i.i = icmp eq i32 %.val.i.i, 0
  br i1 %.not.i.i, label %lean_array_uget.exit, label %16

16:                                               ; preds = %15
  tail call void @lean_inc_ref_cold(ptr noundef nonnull %8) #9
  br label %lean_array_uget.exit

lean_array_uget.exit:                             ; preds = %6, %13, %15, %16
  tail call void @lean_inc_heartbeat() #9
  %17 = tail call noalias ptr @mi_malloc_small(i64 noundef 16) #9
  %18 = icmp eq ptr %17, null
  br i1 %18, label %19, label %20

19:                                               ; preds = %lean_array_uget.exit
  tail call void @lean_internal_panic_out_of_memory() #10
  unreachable

20:                                               ; preds = %lean_array_uget.exit
  %21 = getelementptr inbounds nuw i8, ptr %17, i64 4
  store i32 1, ptr %17, align 4, !tbaa !4
  store i32 65552, ptr %21, align 4
  %22 = getelementptr inbounds nuw i8, ptr %17, i64 8
  store ptr %8, ptr %22, align 8, !tbaa !9
  %23 = tail call ptr @l_Lean_Meta_Grind_EMatchTheorems_erase(ptr noundef %.01829, ptr noundef nonnull %17)
  %24 = add i64 %.01630, 1
  %.not = icmp eq i64 %24, %2
  br i1 %.not, label %._crit_edge, label %6

._crit_edge:                                      ; preds = %20, %4
  %.018.lcssa = phi ptr [ %3, %4 ], [ %23, %20 ]
  ret ptr %.018.lcssa
}